; Function Attrs: nounwind uwtable
define dso_local i64 @freeMemoryGetNotCountedMemory() local_unnamed_addr #0 {
  %1 = load i64, ptr getelementptr inbounds nuw (i8, ptr @server, i64 7224), align 8, !tbaa !65
  %2 = load i64, ptr getelementptr inbounds nuw (i8, ptr @server, i64 7112), align 8, !tbaa !66
  %3 = icmp sgt i64 %1, %2
  br i1 %3, label %4, label %9

4:                                                ; preds = %0
  %5 = sdiv i64 %2, 16384
  %6 = shl nsw i64 %5, 6
  %7 = add i64 %2, 64
  %8 = add i64 %7, %6
  %spec.select = tail call i64 @llvm.usub.sat.i64(i64 %1, i64 %8)
  br label %9

9:                                                ; preds = %4, %0
  %.0 = phi i64 [ %spec.select, %4 ], [ 0, %0 ]
  %10 = load i32, ptr getelementptr inbounds nuw (i8, ptr @server, i64 6520), align 8, !tbaa !67
  %.not = icmp eq i32 %10, 0
  br i1 %.not, label %15, label %11

11:                                               ; preds = %9
  %12 = load ptr, ptr getelementptr inbounds nuw (i8, ptr @server, i64 6600), align 8, !tbaa !68
  %13 = tail call i64 @sdsAllocSize(ptr noundef %12) #15
  %14 = add i64 %13, %.0
  br label %15

15:                                               ; preds = %11, %9
  %.2 = phi i64 [ %14, %11 ], [ %.0, %9 ]
  ret i64 %.2
}